; Function Attrs: mustprogress uwtable
define dso_local void @_ZN6mygame7rect32sC2EPN6google8protobuf5ArenaE(ptr noundef nonnull align 8 dereferenceable(48) %this, ptr noundef %arena) unnamed_addr #3 align 2 personality ptr @__gxx_personality_v0 {
entry:
  %_internal_metadata_.i.i = getelementptr inbounds i8, ptr %this, i64 8
  store ptr %arena, ptr %_internal_metadata_.i.i, align 8
  store ptr getelementptr inbounds ({ [22 x ptr] }, ptr @_ZTVN6mygame7rect32sE, i64 0, i32 0, i64 2), ptr %this, align 8
  %rect32_list_ = getelementptr inbounds i8, ptr %this, i64 16
  store ptr %arena, ptr %rect32_list_, align 8
  %current_size_.i.i = getelementptr inbounds i8, ptr %this, i64 24
  tail call void @llvm.memset.p0.i64(ptr noundef nonnull align 8 dereferenceable(20) %current_size_.i.i, i8 0, i64 20, i1 false)
  %0 = load atomic i32, ptr @scc_info_rect32s_data_5fdef_2eproto acquire, align 8
  %cmp.not.i.i = icmp eq i32 %0, 0
  br i1 %cmp.not.i.i, label %invoke.cont3, label %if.then.i.i

if.then.i.i:                                      ; preds = %entry
  invoke void @_ZN6google8protobuf8internal11InitSCCImplEPNS1_11SCCInfoBaseE(ptr noundef nonnull @scc_info_rect32s_data_5fdef_2eproto)
          to label %invoke.cont3 unwind label %lpad2

invoke.cont3:                                     ; preds = %entry, %if.then.i.i
  ret void

lpad2:                                            ; preds = %if.then.i.i
  %1 = landingpad { ptr, i32 }
          cleanup
  invoke void @_ZN6google8protobuf8internal20RepeatedPtrFieldBase7DestroyINS0_16RepeatedPtrFieldIN6mygame6rect32EE11TypeHandlerEEEvv(ptr noundef nonnull align 8 dereferenceable(24) %rect32_list_)
          to label %_ZN6google8protobuf16RepeatedPtrFieldIN6mygame6rect32EED2Ev.exit unwind label %terminate.lpad.i

terminate.lpad.i:                                 ; preds = %lpad2
  %2 = landingpad { ptr, i32 }
          catch ptr null
  %3 = extractvalue { ptr, i32 } %2, 0
  tail call void @__clang_call_terminate(ptr %3) #21
  unreachable

_ZN6google8protobuf16RepeatedPtrFieldIN6mygame6rect32EED2Ev.exit: ; preds = %lpad2
  resume { ptr, i32 } %1
}